; Function Attrs: mustprogress uwtable
define void @_ZN4base28PersistentHistogramAllocator39MergeHistogramDeltaToStatisticsRecorderEPNS_13HistogramBaseE(ptr noundef nonnull readnone align 8 captures(none) dereferenceable(132) %0, ptr noundef %1) local_unnamed_addr #0 align 2 personality ptr @__gxx_personality_v0 {
  %3 = alloca %"class.std::unique_ptr.32", align 8
  %4 = tail call noundef ptr @_ZN4base28PersistentHistogramAllocator38GetOrCreateStatisticsRecorderHistogramEPKNS_13HistogramBaseE(ptr nonnull align 8 poison, ptr noundef %1)
  %.not = icmp eq ptr %4, null
  br i1 %.not, label %18, label %5

5:                                                ; preds = %2
  call void @llvm.lifetime.start.p0(i64 8, ptr nonnull %3) #21
  %6 = load ptr, ptr %1, align 8, !tbaa !67
  %7 = getelementptr inbounds nuw i8, ptr %6, i64 88
  %8 = load ptr, ptr %7, align 8
  call void %8(ptr dead_on_unwind nonnull writable sret(%"class.std::unique_ptr.32") align 8 %3, ptr noundef nonnull align 8 dereferenceable(44) %1)
  %9 = load ptr, ptr %3, align 8, !tbaa !111
  %10 = load ptr, ptr %4, align 8, !tbaa !67
  %11 = getelementptr inbounds nuw i8, ptr %10, i64 56
  %12 = load ptr, ptr %11, align 8
  invoke void %12(ptr noundef nonnull align 8 dereferenceable(44) %4, ptr noundef nonnull align 8 dereferenceable(40) %9)
          to label %13 unwind label %19

13:                                               ; preds = %5
  %14 = load ptr, ptr %3, align 8, !tbaa !111
  %.not.i = icmp eq ptr %14, null
  br i1 %.not.i, label %_ZNSt10unique_ptrIN4base16HistogramSamplesESt14default_deleteIS1_EED2Ev.exit, label %_ZNKSt14default_deleteIN4base16HistogramSamplesEEclEPS1_.exit.i

_ZNKSt14default_deleteIN4base16HistogramSamplesEEclEPS1_.exit.i: ; preds = %13
  %15 = load ptr, ptr %14, align 8, !tbaa !67
  %16 = getelementptr inbounds nuw i8, ptr %15, i64 8
  %17 = load ptr, ptr %16, align 8
  call void %17(ptr noundef nonnull align 8 dereferenceable(40) %14) #21
  br label %_ZNSt10unique_ptrIN4base16HistogramSamplesESt14default_deleteIS1_EED2Ev.exit

_ZNSt10unique_ptrIN4base16HistogramSamplesESt14default_deleteIS1_EED2Ev.exit: ; preds = %13, %_ZNKSt14default_deleteIN4base16HistogramSamplesEEclEPS1_.exit.i
  call void @llvm.lifetime.end.p0(i64 8, ptr nonnull %3) #21
  br label %18

18:                                               ; preds = %2, %_ZNSt10unique_ptrIN4base16HistogramSamplesESt14default_deleteIS1_EED2Ev.exit
  ret void

19:                                               ; preds = %5
  %20 = landingpad { ptr, i32 }
          cleanup
  %21 = load ptr, ptr %3, align 8, !tbaa !111
  %.not.i6 = icmp eq ptr %21, null
  br i1 %.not.i6, label %_ZNSt10unique_ptrIN4base16HistogramSamplesESt14default_deleteIS1_EED2Ev.exit8, label %_ZNKSt14default_deleteIN4base16HistogramSamplesEEclEPS1_.exit.i7

_ZNKSt14default_deleteIN4base16HistogramSamplesEEclEPS1_.exit.i7: ; preds = %19
  %22 = load ptr, ptr %21, align 8, !tbaa !67
  %23 = getelementptr inbounds nuw i8, ptr %22, i64 8
  %24 = load ptr, ptr %23, align 8
  call void %24(ptr noundef nonnull align 8 dereferenceable(40) %21) #21
  br label %_ZNSt10unique_ptrIN4base16HistogramSamplesESt14default_deleteIS1_EED2Ev.exit8

_ZNSt10unique_ptrIN4base16HistogramSamplesESt14default_deleteIS1_EED2Ev.exit8: ; preds = %19, %_ZNKSt14default_deleteIN4base16HistogramSamplesEEclEPS1_.exit.i7
  call void @llvm.lifetime.end.p0(i64 8, ptr nonnull %3) #21
  resume { ptr, i32 } %20
}